#include <math.h>
#include <stdio.h>
#include <stdlib.h>
#include <string.h>

int main()
{
	int i,j=0,t,n,r;
    char str[100]={0};
    scanf("%d",&n);
	getchar();
	do{
		r=0;
		gets(str);
        t=strlen(str);
		for(i=0;i<t;i++)
		{
			if(i==0)
			{
				if(str[i]=='_')
					r++;
				if(str[i]>96&&str[i]<123)
					r++;
				if(str[i]>64&&str[i]<91)
					r++;
			}
			else
			{
				if(str[i]=='_')
					r++;
				if(str[i]>96&&str[i]<123)
					r++;
				if(str[i]>64&&str[i]<91)
					r++;
				if(str[i]>47&&str[i]<58)
					r++;
			}
		}
		if(r==t)
			printf("1\n");
		else
			printf("0\n");
		j++;
	}while(j<n);
	return 0;
}




